target datalayout = "e-m:e-p270:32:32-p271:32:32-p272:64:64-i64:64-i128:128-f80:128-n8:16:32:64-S128"
target triple = "x86_64-pc-linux-gnu"

%struct._zend_executor_globals = type { %struct._zval_struct, %struct._zval_struct, [32 x ptr], ptr, ptr, %struct._zend_array, %struct._zend_array, ptr, i32, i8, %struct._zval_struct, i32, ptr, ptr, ptr, ptr, ptr, ptr, i64, ptr, ptr, i32, ptr, i32, i64, i32, i32, i32, i8, i8, %struct.zend_atomic_bool_s, %struct.zend_atomic_bool_s, ptr, i64, ptr, ptr, %struct._zend_array, %struct._zend_array, i32, i8, %struct._zval_struct, %struct._zval_struct, %struct._zend_stack, %struct._zend_stack, %struct._zend_stack, ptr, i32, i32, i64, ptr, ptr, ptr, %struct._zend_objects_store, %struct._zend_lazy_objects_store, ptr, ptr, ptr, [3 x %struct._zend_op], ptr, i8, i8, i64, i32, i32, ptr, [16 x %struct._HashTableIterator], ptr, %union._zend_function, %struct._zend_op, %struct._zend_array, i64, %struct.zend_get_gc_buffer, ptr, ptr, ptr, i64, i8, i32, ptr, ptr, i64, %struct._zend_call_stack, i64, i64, %struct._zend_strtod_state, [6 x ptr] }
%struct.zend_atomic_bool_s = type { i8 }
%struct._zval_struct = type { %union._zend_value, %union.anon, %union.anon.2 }
%union._zend_value = type { i64 }
%union.anon = type { i32 }
%union.anon.2 = type { i32 }
%struct._zend_stack = type { i32, i32, i32, ptr }
%struct._zend_objects_store = type { ptr, i32, i32, i32 }
%struct._zend_lazy_objects_store = type { %struct._zend_array }
%struct._HashTableIterator = type { ptr, i32, i32 }
%union._zend_function = type { %struct._zend_op_array }
%struct._zend_op_array = type { i8, [3 x i8], i32, ptr, ptr, ptr, i32, i32, ptr, ptr, ptr, ptr, i32, ptr, i32, i32, i32, ptr, ptr, ptr, ptr, ptr, i32, i32, ptr, ptr, ptr, i32, i32, i32, i32, ptr, ptr, [6 x ptr] }
%struct._zend_op = type { ptr, %union._znode_op, %union._znode_op, %union._znode_op, i32, i32, i8, i8, i8, i8 }
%union._znode_op = type { i32 }
%struct._zend_array = type { %struct._zend_refcounted_h, %union.anon.4, i32, %union.anon.6, i32, i32, i32, i32, i64, ptr }
%struct._zend_refcounted_h = type { i32, %union.anon.3 }
%union.anon.3 = type { i32 }
%union.anon.4 = type { i32 }
%union.anon.6 = type { ptr }
%struct.zend_get_gc_buffer = type { ptr, ptr, ptr }
%struct._zend_call_stack = type { ptr, i64 }
%struct._zend_strtod_state = type { [8 x ptr], ptr, ptr }
%struct._zend_execute_data = type { ptr, ptr, ptr, ptr, %struct._zval_struct, ptr, ptr, ptr, ptr }
%struct.anon.7 = type { i8, [3 x i8], i32, ptr, ptr, ptr, i32, i32, ptr, ptr, ptr, ptr, i32, ptr }

@executor_globals = external global %struct._zend_executor_globals, align 8

; Function Attrs: nounwind uwtable
define dso_local zeroext i1 @zend_parse_arg_long_slow(ptr noundef %0, ptr noundef %1, i32 noundef %2) #0 {
  %4 = alloca i1, align 1
  %5 = alloca ptr, align 8
  %6 = alloca ptr, align 8
  %7 = alloca i32, align 4
  store ptr %0, ptr %5, align 8, !tbaa !8
  store ptr %1, ptr %6, align 8, !tbaa !83
  store i32 %2, ptr %7, align 4, !tbaa !4
  %8 = load ptr, ptr getelementptr inbounds nuw (%struct._zend_executor_globals, ptr @executor_globals, i32 0, i32 19), align 8, !tbaa !11
  %9 = getelementptr inbounds nuw %struct._zend_execute_data, ptr %8, i32 0, i32 5
  %10 = load ptr, ptr %9, align 8, !tbaa !80
  %11 = icmp ne ptr %10, null
  br i1 %11, label %12, label %29

12:                                               ; preds = %3
  %13 = load ptr, ptr getelementptr inbounds nuw (%struct._zend_executor_globals, ptr @executor_globals, i32 0, i32 19), align 8, !tbaa !11
  %14 = getelementptr inbounds nuw %struct._zend_execute_data, ptr %13, i32 0, i32 5
  %15 = load ptr, ptr %14, align 8, !tbaa !80
  %16 = getelementptr inbounds nuw %struct._zend_execute_data, ptr %15, i32 0, i32 3
  %17 = load ptr, ptr %16, align 8, !tbaa !82
  %18 = icmp ne ptr %17, null
  br i1 %18, label %19, label %29

19:                                               ; preds = %12
  %20 = load ptr, ptr getelementptr inbounds nuw (%struct._zend_executor_globals, ptr @executor_globals, i32 0, i32 19), align 8, !tbaa !11
  %21 = getelementptr inbounds nuw %struct._zend_execute_data, ptr %20, i32 0, i32 5
  %22 = load ptr, ptr %21, align 8, !tbaa !80
  %23 = getelementptr inbounds nuw %struct._zend_execute_data, ptr %22, i32 0, i32 3
  %24 = load ptr, ptr %23, align 8, !tbaa !82
  %25 = getelementptr inbounds nuw %struct.anon.7, ptr %24, i32 0, i32 2
  %26 = load i32, ptr %25, align 4, !tbaa !44
  %27 = and i32 %26, -2147483648
  %28 = icmp ne i32 %27, 0
  br label %29

29:                                               ; preds = %19, %12, %3
  %30 = phi i1 [ false, %12 ], [ false, %3 ], [ %28, %19 ]
  %31 = xor i1 %30, true
  %32 = xor i1 %31, true
  %33 = zext i1 %32 to i32
  %34 = sext i32 %33 to i64
  %35 = call i64 @llvm.expect.i64(i64 %34, i64 0)
  %36 = icmp ne i64 %35, 0
  br i1 %36, label %37, label %38

37:                                               ; preds = %29
  store i1 false, ptr %4, align 1
  br label %43

38:                                               ; preds = %29
  %39 = load ptr, ptr %5, align 8, !tbaa !8
  %40 = load ptr, ptr %6, align 8, !tbaa !83
  %41 = load i32, ptr %7, align 4, !tbaa !4
  %42 = call zeroext i1 @zend_parse_arg_long_weak(ptr noundef %39, ptr noundef %40, i32 noundef %41)
  store i1 %42, ptr %4, align 1
  br label %43

43:                                               ; preds = %38, %37
  %44 = load i1, ptr %4, align 1
  ret i1 %44
}