; Function Attrs: nounwind uwtable
define dso_local noundef zeroext i1 @zend_parse_arg_long_slow(ptr noundef readonly captures(none) %0, ptr noundef %1, i32 noundef %2) local_unnamed_addr #2 {
  %4 = load ptr, ptr getelementptr inbounds nuw (i8, ptr @executor_globals, i64 512), align 8, !tbaa !4
  %5 = getelementptr inbounds nuw i8, ptr %4, i64 48
  %6 = load ptr, ptr %5, align 8, !tbaa !71
  %.not = icmp eq ptr %6, null
  br i1 %.not, label %.critedge, label %7

7:                                                ; preds = %3
  %8 = getelementptr inbounds nuw i8, ptr %6, i64 24
  %9 = load ptr, ptr %8, align 8, !tbaa !69
  %.not5 = icmp eq ptr %9, null
  br i1 %.not5, label %.critedge, label %10

10:                                               ; preds = %7
  %11 = getelementptr inbounds nuw i8, ptr %9, i64 4
  %12 = load i32, ptr %11, align 4, !tbaa !42
  %13 = icmp slt i32 %12, 0
  br i1 %13, label %15, label %.critedge, !prof !46

.critedge:                                        ; preds = %7, %3, %10
  %14 = tail call zeroext i1 @zend_parse_arg_long_weak(ptr noundef %0, ptr noundef %1, i32 noundef %2)
  br label %15

15:                                               ; preds = %10, %.critedge
  %.0 = phi i1 [ %14, %.critedge ], [ false, %10 ]
  ret i1 %.0
}